target datalayout = "e-m:e-p270:32:32-p271:32:32-p272:64:64-i64:64-i128:128-f80:128-n8:16:32:64-S128"
target triple = "x86_64-pc-linux-gnu"

@nWords = global i32 0, align 4

; Function Attrs: nounwind uwtable
define i32 @Abc_TruthCompare(ptr noundef %0, ptr noundef %1) #0 {
  %3 = alloca ptr, align 8
  %4 = alloca ptr, align 8
  store ptr %0, ptr %3, align 8
  store ptr %1, ptr %4, align 8
  %5 = load ptr, ptr %3, align 8
  %6 = load ptr, ptr %5, align 8
  %7 = load ptr, ptr %4, align 8
  %8 = load ptr, ptr %7, align 8
  %9 = load i32, ptr @nWords, align 4
  %10 = sext i32 %9 to i64
  %11 = mul i64 8, %10
  %12 = call i32 @memcmp(ptr noundef %6, ptr noundef %8, i64 noundef %11) #9
  ret i32 %12
}